Certificate:
    Data:
        Version: 3 (0x2)
        Serial Number:
            0b:b4:71:f3:14:dd:07:98:c0:3f:1f:8e:43:d4:8d:88
        Signature Algorithm: sha256WithRSAEncryption
        Issuer: C=US, O=DigiCert Inc, CN=DigiCert SHA2 Secure Server CA
        Validity
            Not Before: Aug 29 00:00:00 2025 GMT
            Not After : Feb 28 23:59:59 2026 GMT
        Subject: C=US, ST=California, L=Sunnyvale, O=LinkedIn Corporation, CN=www.linkedin.com
        Subject Public Key Info:
            Public Key Algorithm: rsaEncryption
                Public-Key: (2048 bit)
                Modulus:
                    00:bd:0d:cc:7b:0f:03:e9:7e:aa:14:f6:90:49:b8:
                    40:ed:96:ce:dd:1e:03:79:44:14:f9:11:e2:ab:4c:
                    23:45:7c:a9:e3:8e:38:3b:38:9a:6a:f6:8b:37:be:
                    27:0a:99:9d:24:ea:0f:f1:2e:77:15:50:04:dc:fe:
                    9a:3a:c1:19:20:72:72:4b:1b:da:2c:2c:14:70:5c:
                    b7:d3:e5:82:34:a1:15:3e:57:6e:12:d9:12:a5:08:
                    ec:c9:0e:d6:5f:44:0f:4c:1b:f0:c3:8d:82:74:b7:
                    77:f3:81:21:af:66:a4:24:0a:23:94:55:c9:c7:4e:
                    08:ea:e8:f3:6c:b0:ec:1a:c1:66:73:31:52:4c:6d:
                    b1:79:24:9e:d1:88:f3:09:f9:e1:b3:a8:84:1b:7b:
                    c5:02:f6:49:e4:10:0a:8f:45:51:74:2b:31:61:03:
                    cf:a3:8c:f6:43:2e:78:9a:00:42:b5:97:a3:b7:cd:
                    10:ef:02:7b:98:27:07:07:26:ff:96:c2:2d:88:88:
                    a1:1f:6e:05:78:69:0f:eb:3b:f9:c3:a5:5e:5a:bb:
                    e9:50:0b:c4:08:f9:53:90:2c:11:8e:4f:dc:4e:28:
                    19:79:84:7e:e5:c1:1c:fd:5c:d8:30:eb:7c:c4:18:
                    5d:95:a5:84:89:e5:e3:09:9d:a8:b2:63:7f:bc:4a:
                    9c:d1
                Exponent: 65537 (0x10001)
        X509v3 extensions:
            X509v3 Authority Key Identifier: 
                0F:80:61:1C:82:31:61:D5:2F:28:E7:8D:46:38:B4:2C:E1:C6:D9:E2
            X509v3 Subject Key Identifier: 
                52:3C:32:8E:6B:3F:68:59:C6:42:00:32:3D:EE:39:96:13:5D:E5:6C
            X509v3 Subject Alternative Name: 
                DNS:www.linkedin.com, DNS:linkedin.com, DNS:rum5.perf.linkedin.com, DNS:exp4.www.linkedin.com, DNS:exp3.www.linkedin.com, DNS:exp2.www.linkedin.com, DNS:exp1.www.linkedin.com, DNS:rum2.perf.linkedin.com, DNS:rum4.perf.linkedin.com, DNS:rum6.perf.linkedin.com, DNS:rum17.perf.linkedin.com, DNS:rum8.perf.linkedin.com, DNS:rum9.perf.linkedin.com, DNS:afd.perf.linkedin.com, DNS:rum14.perf.linkedin.com, DNS:rum18.perf.linkedin.com, DNS:rum19.perf.linkedin.com, DNS:exp5.www.linkedin.com, DNS:realtime.www.linkedin.com, DNS:px.ads.linkedin.com, DNS:px4.ads.linkedin.com, DNS:dc.ads.linkedin.com, DNS:lnkd.in, DNS:px.jobs.linkedin.com, DNS:mid4.linkedin.com, DNS:lan.sdk.linkedin.com, DNS:www.linkedin-measure.com, DNS:status.linkedin.com, DNS:payment.www.linkedin.com, DNS:afd-wcs.www.linkedin.com, DNS:shm.www.linkedin.com, DNS:static.licdn.com, DNS:static-exp1.licdn.com, DNS:static-exp2.licdn.com, DNS:static-exp3.licdn.com, DNS:static-afd.licdn.com, DNS:rum22.perf.linkedin.com, DNS:cf.perf.linkedin.com, DNS:cf.grpc.linkedin.com
            X509v3 Certificate Policies: 
                Policy: 2.23.140.1.2.2
                  CPS: http://www.digicert.com/CPS
            X509v3 Key Usage: critical
                Digital Signature, Key Encipherment
            X509v3 Extended Key Usage: 
                TLS Web Server Authentication, TLS Web Client Authentication
            X509v3 CRL Distribution Points: 
                Full Name:
                  URI:http://crl3.digicert.com/DigicertSHA2SecureServerCA-1.crl

                Full Name:
                  URI:http://crl4.digicert.com/DigicertSHA2SecureServerCA-1.crl

            Authority Information Access: 
                OCSP - URI:http://ocsp.digicert.com
                CA Issuers - URI:http://cacerts.digicert.com/DigiCertSHA2SecureServerCA-2.crt
            X509v3 Basic Constraints: critical
                CA:FALSE
            CT Precertificate SCTs: 
                Signed Certificate Timestamp:
                    Version   : v1 (0x0)
                    Log ID    : 96:97:64:BF:55:58:97:AD:F7:43:87:68:37:08:42:77:
                                E9:F0:3A:D5:F6:A4:F3:36:6E:46:A4:3F:0F:CA:A9:C6
                    Timestamp : Aug 29 05:56:13.582 2025 GMT
                    Extensions: none
                    Signature : ecdsa-with-SHA256
                                30:45:02:21:00:C5:72:15:3A:02:AC:7F:AD:00:46:5D:
                                41:29:BF:7F:60:50:14:03:91:D4:D8:02:E6:02:5F:EE:
                                8D:05:92:48:E1:02:20:7F:93:23:AD:8F:C8:64:90:AD:
                                60:19:EE:B6:37:8B:F3:B6:EF:B6:CA:CA:6D:A3:B3:EB:
                                2B:D2:90:EA:E7:1D:72
                Signed Certificate Timestamp:
                    Version   : v1 (0x0)
                    Log ID    : 64:11:C4:6C:A4:12:EC:A7:89:1C:A2:02:2E:00:BC:AB:
                                4F:28:07:D4:1E:35:27:AB:EA:FE:D5:03:C9:7D:CD:F0
                    Timestamp : Aug 29 05:56:13.578 2025 GMT
                    Extensions: none
                    Signature : ecdsa-with-SHA256
                                30:46:02:21:00:8C:B1:64:D6:DC:2D:8F:F9:2B:FB:03:
                                A3:2A:AF:FA:E4:0E:EA:E8:01:32:43:09:EB:40:AF:E5:
                                2D:26:53:7E:F8:02:21:00:F1:9A:87:2A:AE:C9:4A:5D:
                                2D:98:D6:2C:60:A1:83:BD:16:4C:6B:C6:19:47:FB:C4:
                                F2:B3:4A:66:F6:36:D8:67
                Signed Certificate Timestamp:
                    Version   : v1 (0x0)
                    Log ID    : 49:9C:9B:69:DE:1D:7C:EC:FC:36:DE:CD:87:64:A6:B8:
                                5B:AF:0A:87:80:19:D1:55:52:FB:E9:EB:29:DD:F8:C3
                    Timestamp : Aug 29 05:56:13.594 2025 GMT
                    Extensions: none
                    Signature : ecdsa-with-SHA256
                                30:45:02:20:5A:30:6F:7A:CB:48:BD:6A:88:F8:55:60:
                                0A:B5:6A:14:7B:6C:2D:F4:FC:7B:57:48:2D:07:AC:78:
                                F8:93:57:C5:02:21:00:80:0F:C0:F1:22:A9:3B:78:CC:
                                BB:8D:BC:FD:61:B1:40:53:E6:04:8A:79:E8:26:BA:96:
                                35:EA:6E:20:81:91:B3
    Signature Algorithm: sha256WithRSAEncryption
    Signature Value:
        6b:7f:74:50:d2:78:70:8a:2a:3d:99:9a:de:7f:dd:48:43:b5:
        79:de:16:2d:7b:ee:6c:d3:12:78:68:27:48:c8:57:51:25:69:
        0a:49:e5:06:ad:91:3c:87:64:cd:e2:88:3e:c6:f3:e1:0b:54:
        44:47:2a:f2:f9:b4:0b:b9:47:6f:c0:27:03:bd:26:a2:2b:ef:
        0f:ad:7d:51:3f:32:47:7e:ab:ad:05:40:27:66:d1:c7:bc:60:
        47:ad:00:a5:c4:9f:95:bc:2a:b1:68:17:f0:25:d0:6c:d4:bb:
        51:9d:9c:54:58:63:57:17:27:b4:40:66:8c:9b:04:ad:5e:3f:
        9b:bf:34:51:3a:fa:1c:47:23:4c:ff:24:b9:e0:43:49:0a:1e:
        3f:d0:3c:a3:e9:05:af:4e:95:4d:3f:0b:8e:94:e1:8c:e7:46:
        9b:45:4d:eb:b1:c1:98:20:be:44:1c:18:8e:80:77:0b:0b:05:
        88:75:5c:6f:41:8b:73:4a:51:7a:bb:1c:42:a3:5e:d7:7d:c7:
        77:37:7f:26:a6:fe:95:a9:a7:f9:91:06:ab:a6:88:22:9f:eb:
        99:fb:94:fc:76:53:54:81:62:f0:b2:c7:ac:27:39:2f:41:22:
        a7:8d:ea:1b:bc:02:cd:81:ef:92:60:16:20:a3:84:c0:02:8f:
        63:98:ad:06
-----BEGIN CERTIFICATE-----
MIIKGjCCCQKgAwIBAgIQC7Rx8xTdB5jAPx+OQ9SNiDANBgkqhkiG9w0BAQsFADBN
MQswCQYDVQQGEwJVUzEVMBMGA1UEChMMRGlnaUNlcnQgSW5jMScwJQYDVQQDEx5E
aWdpQ2VydCBTSEEyIFNlY3VyZSBTZXJ2ZXIgQ0EwHhcNMjUwODI5MDAwMDAwWhcN
MjYwMjI4MjM1OTU5WjBwMQswCQYDVQQGEwJVUzETMBEGA1UECBMKQ2FsaWZvcm5p
YTESMBAGA1UEBxMJU3Vubnl2YWxlMR0wGwYDVQQKExRMaW5rZWRJbiBDb3Jwb3Jh
dGlvbjEZMBcGA1UEAxMQd3d3LmxpbmtlZGluLmNvbTCCASIwDQYJKoZIhvcNAQEB
BQADggEPADCCAQoCggEBAL0NzHsPA+l+qhT2kEm4QO2Wzt0eA3lEFPkR4qtMI0V8
qeOOODs4mmr2ize+JwqZnSTqD/EudxVQBNz+mjrBGSBycksb2iwsFHBct9PlgjSh
FT5XbhLZEqUI7MkO1l9ED0wb8MONgnS3d/OBIa9mpCQKI5RVycdOCOro82yw7BrB
ZnMxUkxtsXkkntGI8wn54bOohBt7xQL2SeQQCo9FUXQrMWEDz6OM9kMueJoAQrWX
o7fNEO8Ce5gnBwcm/5bCLYiIoR9uBXhpD+s7+cOlXlq76VALxAj5U5AsEY5P3E4o
GXmEfuXBHP1c2DDrfMQYXZWlhInl4wmdqLJjf7xKnNECAwEAAaOCBtEwggbNMB8G
A1UdIwQYMBaAFA+AYRyCMWHVLyjnjUY4tCzhxtniMB0GA1UdDgQWBBRSPDKOaz9o
WcZCADI97jmWE13lbDCCA3kGA1UdEQSCA3AwggNsghB3d3cubGlua2VkaW4uY29t
ggxsaW5rZWRpbi5jb22CFnJ1bTUucGVyZi5saW5rZWRpbi5jb22CFWV4cDQud3d3
LmxpbmtlZGluLmNvbYIVZXhwMy53d3cubGlua2VkaW4uY29tghVleHAyLnd3dy5s
aW5rZWRpbi5jb22CFWV4cDEud3d3LmxpbmtlZGluLmNvbYIWcnVtMi5wZXJmLmxp
bmtlZGluLmNvbYIWcnVtNC5wZXJmLmxpbmtlZGluLmNvbYIWcnVtNi5wZXJmLmxp
bmtlZGluLmNvbYIXcnVtMTcucGVyZi5saW5rZWRpbi5jb22CFnJ1bTgucGVyZi5s
aW5rZWRpbi5jb22CFnJ1bTkucGVyZi5saW5rZWRpbi5jb22CFWFmZC5wZXJmLmxp
bmtlZGluLmNvbYIXcnVtMTQucGVyZi5saW5rZWRpbi5jb22CF3J1bTE4LnBlcmYu
bGlua2VkaW4uY29tghdydW0xOS5wZXJmLmxpbmtlZGluLmNvbYIVZXhwNS53d3cu
bGlua2VkaW4uY29tghlyZWFsdGltZS53d3cubGlua2VkaW4uY29tghNweC5hZHMu
bGlua2VkaW4uY29tghRweDQuYWRzLmxpbmtlZGluLmNvbYITZGMuYWRzLmxpbmtl
ZGluLmNvbYIHbG5rZC5pboIUcHguam9icy5saW5rZWRpbi5jb22CEW1pZDQubGlu
a2VkaW4uY29tghRsYW4uc2RrLmxpbmtlZGluLmNvbYIYd3d3LmxpbmtlZGluLW1l
YXN1cmUuY29tghNzdGF0dXMubGlua2VkaW4uY29tghhwYXltZW50Lnd3dy5saW5r
ZWRpbi5jb22CGGFmZC13Y3Mud3d3LmxpbmtlZGluLmNvbYIUc2htLnd3dy5saW5r
ZWRpbi5jb22CEHN0YXRpYy5saWNkbi5jb22CFXN0YXRpYy1leHAxLmxpY2RuLmNv
bYIVc3RhdGljLWV4cDIubGljZG4uY29tghVzdGF0aWMtZXhwMy5saWNkbi5jb22C
FHN0YXRpYy1hZmQubGljZG4uY29tghdydW0yMi5wZXJmLmxpbmtlZGluLmNvbYIU
Y2YucGVyZi5saW5rZWRpbi5jb22CFGNmLmdycGMubGlua2VkaW4uY29tMD4GA1Ud
IAQ3MDUwMwYGZ4EMAQICMCkwJwYIKwYBBQUHAgEWG2h0dHA6Ly93d3cuZGlnaWNl
cnQuY29tL0NQUzAOBgNVHQ8BAf8EBAMCBaAwHQYDVR0lBBYwFAYIKwYBBQUHAwEG
CCsGAQUFBwMCMIGNBgNVHR8EgYUwgYIwP6A9oDuGOWh0dHA6Ly9jcmwzLmRpZ2lj
ZXJ0LmNvbS9EaWdpY2VydFNIQTJTZWN1cmVTZXJ2ZXJDQS0xLmNybDA/oD2gO4Y5
aHR0cDovL2NybDQuZGlnaWNlcnQuY29tL0RpZ2ljZXJ0U0hBMlNlY3VyZVNlcnZl
ckNBLTEuY3JsMH4GCCsGAQUFBwEBBHIwcDAkBggrBgEFBQcwAYYYaHR0cDovL29j
c3AuZGlnaWNlcnQuY29tMEgGCCsGAQUFBzAChjxodHRwOi8vY2FjZXJ0cy5kaWdp
Y2VydC5jb20vRGlnaUNlcnRTSEEyU2VjdXJlU2VydmVyQ0EtMi5jcnQwDAYDVR0T
AQH/BAIwADCCAX8GCisGAQQB1nkCBAIEggFvBIIBawFpAHYAlpdkv1VYl633Q4do
NwhCd+nwOtX2pPM2bkakPw/KqcYAAAGY9GXejgAABAMARzBFAiEAxXIVOgKsf60A
Rl1BKb9/YFAUA5HU2ALmAl/ujQWSSOECIH+TI62PyGSQrWAZ7rY3i/O277bKym2j
s+sr0pDq5x1yAHcAZBHEbKQS7KeJHKICLgC8q08oB9QeNSer6v7VA8l9zfAAAAGY
9GXeigAABAMASDBGAiEAjLFk1twtj/kr+wOjKq/65A7q6AEyQwnrQK/lLSZTfvgC
IQDxmocqrslKXS2Y1ixgoYO9FkxrxhlH+8Tys0pm9jbYZwB2AEmcm2neHXzs/Dbe
zYdkprhbrwqHgBnRVVL76esp3fjDAAABmPRl3poAAAQDAEcwRQIgWjBvestIvWqI
+FVgCrVqFHtsLfT8e1dILQesePiTV8UCIQCAD8DxIqk7eMy7jbz9YbFAU+YEinno
JrqWNepuIIGRszANBgkqhkiG9w0BAQsFAAOCAQEAa390UNJ4cIoqPZma3n/dSEO1
ed4WLXvubNMSeGgnSMhXUSVpCknlBq2RPIdkzeKIPsbz4QtUREcq8vm0C7lHb8An
A70moivvD619UT8yR36rrQVAJ2bRx7xgR60ApcSflbwqsWgX8CXQbNS7UZ2cVFhj
VxcntEBmjJsErV4/m780UTr6HEcjTP8kueBDSQoeP9A8o+kFr06VTT8LjpThjOdG
m0VN67HBmCC+RBwYjoB3CwsFiHVcb0GLc0pRerscQqNe133Hdzd/Jqb+lamn+ZEG
q6aIIp/rmfuU/HZTVIFi8LLHrCc5L0Eip43qG7wCzYHvkmAWIKOEwAKPY5itBg==
-----END CERTIFICATE-----
